target datalayout = "e-m:e-p270:32:32-p271:32:32-p272:64:64-i64:64-i128:128-f80:128-n8:16:32:64-S128"
target triple = "x86_64-pc-linux-gnu"

%struct._lv_anim_t = type { ptr, ptr, ptr, ptr, ptr, ptr, ptr, ptr, ptr, i32, i32, i32, i32, i32, i32, i32, i32, i32, %union._lv_anim_path_para_t, i32, i8 }
%union._lv_anim_path_para_t = type { %struct.lv_anim_bezier3_para_t }
%struct.lv_anim_bezier3_para_t = type { i16, i16, i16, i16 }

; Function Attrs: nounwind uwtable
define i32 @lv_anim_path_step(ptr noundef %0) #0 {
  %2 = alloca i32, align 4
  %3 = alloca ptr, align 8
  store ptr %0, ptr %3, align 8, !tbaa !21
  %4 = load ptr, ptr %3, align 8, !tbaa !21
  %5 = getelementptr inbounds nuw %struct._lv_anim_t, ptr %4, i32 0, i32 13
  %6 = load i32, ptr %5, align 8, !tbaa !27
  %7 = load ptr, ptr %3, align 8, !tbaa !21
  %8 = getelementptr inbounds nuw %struct._lv_anim_t, ptr %7, i32 0, i32 12
  %9 = load i32, ptr %8, align 4, !tbaa !32
  %10 = icmp sge i32 %6, %9
  br i1 %10, label %11, label %15

11:                                               ; preds = %1
  %12 = load ptr, ptr %3, align 8, !tbaa !21
  %13 = getelementptr inbounds nuw %struct._lv_anim_t, ptr %12, i32 0, i32 11
  %14 = load i32, ptr %13, align 8, !tbaa !30
  store i32 %14, ptr %2, align 4
  br label %19

15:                                               ; preds = %1
  %16 = load ptr, ptr %3, align 8, !tbaa !21
  %17 = getelementptr inbounds nuw %struct._lv_anim_t, ptr %16, i32 0, i32 9
  %18 = load i32, ptr %17, align 8, !tbaa !29
  store i32 %18, ptr %2, align 4
  br label %19

19:                                               ; preds = %15, %11
  %20 = load i32, ptr %2, align 4
  ret i32 %20
}