; Function Attrs: mustprogress nofree norecurse nosync nounwind willreturn memory(argmem: read) uwtable
define i32 @lv_anim_path_step(ptr nocapture noundef readonly %0) local_unnamed_addr #3 {
  %2 = getelementptr inbounds nuw i8, ptr %0, i64 88
  %3 = load i32, ptr %2, align 8, !tbaa !25
  %4 = getelementptr inbounds nuw i8, ptr %0, i64 84
  %5 = load i32, ptr %4, align 4, !tbaa !30
  %.not = icmp slt i32 %3, %5
  %.0.in.v = select i1 %.not, i64 72, i64 80
  %.0.in = getelementptr inbounds nuw i8, ptr %0, i64 %.0.in.v
  %.0 = load i32, ptr %.0.in, align 8, !tbaa !48
  ret i32 %.0
}